target datalayout = "e-m:e-p270:32:32-p271:32:32-p272:64:64-i64:64-i128:128-f80:128-n8:16:32:64-S128"
target triple = "x86_64-pc-linux-gnu"

@tcg_ctx = external thread_local global ptr, align 8

; Function Attrs: inlinehint nounwind sspstrong uwtable
define internal i64 @temp_arg(ptr noundef %0) #4 {
  %2 = alloca ptr, align 8
  store ptr %0, ptr %2, align 8
  %3 = load ptr, ptr %2, align 8
  %4 = ptrtoint ptr %3 to i64
  ret i64 %4
}

; Function Attrs: inlinehint nounwind sspstrong uwtable
define internal ptr @tcgv_i32_temp(ptr noundef %0) #4 {
  %2 = alloca ptr, align 8
  store ptr %0, ptr %2, align 8
  %3 = call align 8 ptr @llvm.threadlocal.address.p0(ptr align 8 @tcg_ctx)
  %4 = load ptr, ptr %3, align 8
  %5 = load ptr, ptr %2, align 8
  %6 = ptrtoint ptr %5 to i64
  %7 = getelementptr inbounds nuw i8, ptr %4, i64 %6
  ret ptr %7
}

; Function Attrs: nounwind sspstrong uwtable
define internal void @tcg_gen_op2_i32(i32 noundef %0, ptr noundef %1, ptr noundef %2) #3 {
  %4 = alloca i32, align 4
  %5 = alloca ptr, align 8
  %6 = alloca ptr, align 8
  store i32 %0, ptr %4, align 4
  store ptr %1, ptr %5, align 8
  store ptr %2, ptr %6, align 8
  %7 = load i32, ptr %4, align 4
  %8 = load ptr, ptr %5, align 8
  %9 = call i64 @tcgv_i32_arg(ptr noundef %8)
  %10 = load ptr, ptr %6, align 8
  %11 = call i64 @tcgv_i32_arg(ptr noundef %10)
  %12 = call ptr @tcg_gen_op2(i32 noundef %7, i32 noundef 0, i64 noundef %9, i64 noundef %11)
  ret void
}

; Function Attrs: inlinehint nounwind sspstrong uwtable
define internal i64 @tcgv_i32_arg(ptr noundef %0) #4 {
  %2 = alloca ptr, align 8
  store ptr %0, ptr %2, align 8
  %3 = load ptr, ptr %2, align 8
  %4 = call ptr @tcgv_i32_temp(ptr noundef %3)
  %5 = call i64 @temp_arg(ptr noundef %4)
  ret i64 %5
}

; Function Attrs: nounwind sspstrong uwtable
define dso_local void @tcg_gen_ext8u_i32(ptr noundef %0, ptr noundef %1) #3 {
  %3 = alloca ptr, align 8
  %4 = alloca ptr, align 8
  store ptr %0, ptr %3, align 8
  store ptr %1, ptr %4, align 8
  %5 = load ptr, ptr %3, align 8
  %6 = load ptr, ptr %4, align 8
  call void @tcg_gen_op2_i32(i32 noundef 49, ptr noundef %5, ptr noundef %6)
  ret void
}

; Function Attrs: nounwind sspstrong uwtable
define dso_local void @tcg_gen_ext16u_i32(ptr noundef %0, ptr noundef %1) #3 {
  %3 = alloca ptr, align 8
  %4 = alloca ptr, align 8
  store ptr %0, ptr %3, align 8
  store ptr %1, ptr %4, align 8
  %5 = load ptr, ptr %3, align 8
  %6 = load ptr, ptr %4, align 8
  call void @tcg_gen_op2_i32(i32 noundef 50, ptr noundef %5, ptr noundef %6)
  ret void
}

; Function Attrs: nounwind sspstrong uwtable
define internal ptr @tcg_gen_op4ii_i32(i32 noundef %0, ptr noundef %1, ptr noundef %2, i64 noundef %3, i64 noundef %4) #3 {
  %6 = alloca i32, align 4
  %7 = alloca ptr, align 8
  %8 = alloca ptr, align 8
  %9 = alloca i64, align 8
  %10 = alloca i64, align 8
  store i32 %0, ptr %6, align 4
  store ptr %1, ptr %7, align 8
  store ptr %2, ptr %8, align 8
  store i64 %3, ptr %9, align 8
  store i64 %4, ptr %10, align 8
  %11 = load i32, ptr %6, align 4
  %12 = load ptr, ptr %7, align 8
  %13 = call i64 @tcgv_i32_arg(ptr noundef %12)
  %14 = load ptr, ptr %8, align 8
  %15 = call i64 @tcgv_i32_arg(ptr noundef %14)
  %16 = load i64, ptr %9, align 8
  %17 = load i64, ptr %10, align 8
  %18 = call ptr @tcg_gen_op4(i32 noundef %11, i32 noundef 0, i64 noundef %13, i64 noundef %15, i64 noundef %16, i64 noundef %17)
  ret ptr %18
}

; Function Attrs: inlinehint nounwind sspstrong uwtable
define internal zeroext i1 @tcg_target_extract_valid(i32 noundef %0, i32 noundef %1, i32 noundef %2) #4 {
  %4 = alloca i1, align 1
  %5 = alloca i32, align 4
  %6 = alloca i32, align 4
  %7 = alloca i32, align 4
  store i32 %0, ptr %5, align 4
  store i32 %1, ptr %6, align 4
  store i32 %2, ptr %7, align 4
  %8 = load i32, ptr %5, align 4
  %9 = icmp eq i32 %8, 1
  br i1 %9, label %10, label %16

10:                                               ; preds = %3
  %11 = load i32, ptr %6, align 4
  %12 = load i32, ptr %7, align 4
  %13 = add i32 %11, %12
  %14 = icmp eq i32 %13, 32
  br i1 %14, label %15, label %16

15:                                               ; preds = %10
  store i1 true, ptr %4, align 1
  br label %30

16:                                               ; preds = %10, %3
  %17 = load i32, ptr %6, align 4
  switch i32 %17, label %29 [
    i32 0, label %18
    i32 8, label %26
  ]

18:                                               ; preds = %16
  %19 = load i32, ptr %7, align 4
  %20 = icmp eq i32 %19, 8
  br i1 %20, label %24, label %21

21:                                               ; preds = %18
  %22 = load i32, ptr %7, align 4
  %23 = icmp eq i32 %22, 16
  br label %24

24:                                               ; preds = %21, %18
  %25 = phi i1 [ true, %18 ], [ %23, %21 ]
  store i1 %25, ptr %4, align 1
  br label %30

26:                                               ; preds = %16
  %27 = load i32, ptr %7, align 4
  %28 = icmp eq i32 %27, 8
  store i1 %28, ptr %4, align 1
  br label %30

29:                                               ; preds = %16
  store i1 false, ptr %4, align 1
  br label %30

30:                                               ; preds = %29, %26, %24, %15
  %31 = load i1, ptr %4, align 1
  ret i1 %31
}

; Function Attrs: nounwind sspstrong uwtable
define dso_local void @tcg_gen_extract_i32(ptr noundef %0, ptr noundef %1, i32 noundef %2, i32 noundef %3) #3 {
  %5 = alloca ptr, align 8
  %6 = alloca ptr, align 8
  %7 = alloca i32, align 4
  %8 = alloca i32, align 4
  store ptr %0, ptr %5, align 8
  store ptr %1, ptr %6, align 8
  store i32 %2, ptr %7, align 4
  store i32 %3, ptr %8, align 4
  br label %9

9:                                                ; preds = %4
  %10 = load i32, ptr %7, align 4
  %11 = icmp ult i32 %10, 32
  br i1 %11, label %13, label %12

12:                                               ; preds = %9
  unreachable

13:                                               ; preds = %9
  br label %14

14:                                               ; preds = %13
  br label %15

15:                                               ; preds = %14
  %16 = load i32, ptr %8, align 4
  %17 = icmp ugt i32 %16, 0
  br i1 %17, label %19, label %18

18:                                               ; preds = %15
  unreachable

19:                                               ; preds = %15
  br label %20

20:                                               ; preds = %19
  br label %21

21:                                               ; preds = %20
  %22 = load i32, ptr %8, align 4
  %23 = icmp ule i32 %22, 32
  br i1 %23, label %25, label %24

24:                                               ; preds = %21
  unreachable

25:                                               ; preds = %21
  br label %26

26:                                               ; preds = %25
  br label %27

27:                                               ; preds = %26
  %28 = load i32, ptr %7, align 4
  %29 = load i32, ptr %8, align 4
  %30 = add i32 %28, %29
  %31 = icmp ule i32 %30, 32
  br i1 %31, label %33, label %32

32:                                               ; preds = %27
  unreachable

33:                                               ; preds = %27
  br label %34

34:                                               ; preds = %33
  %35 = load i32, ptr %7, align 4
  %36 = load i32, ptr %8, align 4
  %37 = add i32 %35, %36
  %38 = icmp eq i32 %37, 32
  br i1 %38, label %39, label %44

39:                                               ; preds = %34
  %40 = load ptr, ptr %5, align 8
  %41 = load ptr, ptr %6, align 8
  %42 = load i32, ptr %8, align 4
  %43 = sub i32 32, %42
  call void @tcg_gen_shri_i32(ptr noundef %40, ptr noundef %41, i32 noundef %43)
  br label %104

44:                                               ; preds = %34
  %45 = load i32, ptr %7, align 4
  %46 = icmp eq i32 %45, 0
  br i1 %46, label %47, label %53

47:                                               ; preds = %44
  %48 = load ptr, ptr %5, align 8
  %49 = load ptr, ptr %6, align 8
  %50 = load i32, ptr %8, align 4
  %51 = shl i32 1, %50
  %52 = sub i32 %51, 1
  call void @tcg_gen_andi_i32(ptr noundef %48, ptr noundef %49, i32 noundef %52)
  br label %104

53:                                               ; preds = %44
  %54 = load i32, ptr %7, align 4
  %55 = load i32, ptr %8, align 4
  %56 = call zeroext i1 @tcg_target_extract_valid(i32 noundef 0, i32 noundef %54, i32 noundef %55)
  br i1 %56, label %57, label %65

57:                                               ; preds = %53
  %58 = load ptr, ptr %5, align 8
  %59 = load ptr, ptr %6, align 8
  %60 = load i32, ptr %7, align 4
  %61 = zext i32 %60 to i64
  %62 = load i32, ptr %8, align 4
  %63 = zext i32 %62 to i64
  %64 = call ptr @tcg_gen_op4ii_i32(i32 noundef 35, ptr noundef %58, ptr noundef %59, i64 noundef %61, i64 noundef %63)
  br label %104

65:                                               ; preds = %53
  %66 = load i32, ptr %7, align 4
  %67 = load i32, ptr %8, align 4
  %68 = add i32 %66, %67
  switch i32 %68, label %81 [
    i32 16, label %69
    i32 8, label %75
  ]

69:                                               ; preds = %65
  %70 = load ptr, ptr %5, align 8
  %71 = load ptr, ptr %6, align 8
  call void @tcg_gen_ext16u_i32(ptr noundef %70, ptr noundef %71)
  %72 = load ptr, ptr %5, align 8
  %73 = load ptr, ptr %5, align 8
  %74 = load i32, ptr %7, align 4
  call void @tcg_gen_shri_i32(ptr noundef %72, ptr noundef %73, i32 noundef %74)
  br label %104

75:                                               ; preds = %65
  %76 = load ptr, ptr %5, align 8
  %77 = load ptr, ptr %6, align 8
  call void @tcg_gen_ext8u_i32(ptr noundef %76, ptr noundef %77)
  %78 = load ptr, ptr %5, align 8
  %79 = load ptr, ptr %5, align 8
  %80 = load i32, ptr %7, align 4
  call void @tcg_gen_shri_i32(ptr noundef %78, ptr noundef %79, i32 noundef %80)
  br label %104

81:                                               ; preds = %65
  %82 = load i32, ptr %8, align 4
  switch i32 %82, label %93 [
    i32 16, label %84
    i32 1, label %83
    i32 2, label %83
    i32 3, label %83
    i32 4, label %83
    i32 5, label %83
    i32 6, label %83
    i32 7, label %83
    i32 8, label %83
  ]

83:                                               ; preds = %81, %81, %81, %81, %81, %81, %81, %81
  br label %84

84:                                               ; preds = %81, %83
  %85 = load ptr, ptr %5, align 8
  %86 = load ptr, ptr %6, align 8
  %87 = load i32, ptr %7, align 4
  call void @tcg_gen_shri_i32(ptr noundef %85, ptr noundef %86, i32 noundef %87)
  %88 = load ptr, ptr %5, align 8
  %89 = load ptr, ptr %5, align 8
  %90 = load i32, ptr %8, align 4
  %91 = shl i32 1, %90
  %92 = sub i32 %91, 1
  call void @tcg_gen_andi_i32(ptr noundef %88, ptr noundef %89, i32 noundef %92)
  br label %104

93:                                               ; preds = %81
  %94 = load ptr, ptr %5, align 8
  %95 = load ptr, ptr %6, align 8
  %96 = load i32, ptr %8, align 4
  %97 = sub i32 32, %96
  %98 = load i32, ptr %7, align 4
  %99 = sub i32 %97, %98
  call void @tcg_gen_shli_i32(ptr noundef %94, ptr noundef %95, i32 noundef %99)
  %100 = load ptr, ptr %5, align 8
  %101 = load ptr, ptr %5, align 8
  %102 = load i32, ptr %8, align 4
  %103 = sub i32 32, %102
  call void @tcg_gen_shri_i32(ptr noundef %100, ptr noundef %101, i32 noundef %103)
  br label %104

104:                                              ; preds = %39, %47, %57, %69, %75, %93, %84
  ret void
}