; Function Attrs: nounwind sspstrong uwtable
define dso_local void @tcg_gen_extract_i32(ptr noundef %0, ptr noundef %1, i32 noundef %2, i32 noundef %3) local_unnamed_addr #2 {
  %5 = icmp samesign ult i32 %2, 32
  tail call void @llvm.assume(i1 %5)
  %6 = icmp ne i32 %3, 0
  tail call void @llvm.assume(i1 %6)
  %7 = add nuw nsw i32 %3, %2
  %8 = icmp samesign ult i32 %7, 33
  tail call void @llvm.assume(i1 %8)
  %9 = icmp eq i32 %7, 32
  br i1 %9, label %10, label %38

10:                                               ; preds = %4
  %11 = icmp eq i32 %3, 32
  br i1 %11, label %12, label %23

12:                                               ; preds = %10
  %.not.i.i = icmp eq ptr %0, %1
  br i1 %.not.i.i, label %tcg_gen_shri_i32.exit, label %13

13:                                               ; preds = %12
  %14 = tail call align 8 ptr @llvm.threadlocal.address.p0(ptr align 8 @tcg_ctx)
  %15 = load ptr, ptr %14, align 8
  %16 = ptrtoint ptr %0 to i64
  %17 = getelementptr inbounds nuw i8, ptr %15, i64 %16
  %18 = ptrtoint ptr %17 to i64
  %19 = ptrtoint ptr %1 to i64
  %20 = getelementptr inbounds nuw i8, ptr %15, i64 %19
  %21 = ptrtoint ptr %20 to i64
  %22 = tail call ptr @tcg_gen_op2(i32 noundef 5, i32 noundef 0, i64 noundef %18, i64 noundef %21)
  br label %tcg_gen_shri_i32.exit

23:                                               ; preds = %10
  %24 = sub nuw nsw i32 32, %3
  %25 = tail call ptr @tcg_constant_i32(i32 noundef %24) #6
  %26 = tail call align 8 ptr @llvm.threadlocal.address.p0(ptr align 8 @tcg_ctx)
  %27 = load ptr, ptr %26, align 8
  %28 = ptrtoint ptr %0 to i64
  %29 = getelementptr inbounds nuw i8, ptr %27, i64 %28
  %30 = ptrtoint ptr %29 to i64
  %31 = ptrtoint ptr %1 to i64
  %32 = getelementptr inbounds nuw i8, ptr %27, i64 %31
  %33 = ptrtoint ptr %32 to i64
  %34 = ptrtoint ptr %25 to i64
  %35 = getelementptr inbounds nuw i8, ptr %27, i64 %34
  %36 = ptrtoint ptr %35 to i64
  %37 = tail call ptr @tcg_gen_op3(i32 noundef 30, i32 noundef 0, i64 noundef %30, i64 noundef %33, i64 noundef %36)
  br label %tcg_gen_shri_i32.exit

38:                                               ; preds = %4
  %39 = icmp eq i32 %2, 0
  br i1 %39, label %40, label %42

40:                                               ; preds = %38
  %notmask46 = shl nsw i32 -1, %3
  %41 = xor i32 %notmask46, -1
  tail call void @tcg_gen_andi_i32(ptr noundef %0, ptr noundef %1, i32 noundef %41)
  br label %tcg_gen_shri_i32.exit

42:                                               ; preds = %38
  %cond.i = icmp eq i32 %2, 8
  %43 = icmp eq i32 %3, 8
  %spec.select.i = and i1 %cond.i, %43
  br i1 %spec.select.i, label %44, label %54

44:                                               ; preds = %42
  %45 = tail call align 8 ptr @llvm.threadlocal.address.p0(ptr align 8 @tcg_ctx)
  %46 = load ptr, ptr %45, align 8
  %47 = ptrtoint ptr %0 to i64
  %48 = getelementptr inbounds nuw i8, ptr %46, i64 %47
  %49 = ptrtoint ptr %48 to i64
  %50 = ptrtoint ptr %1 to i64
  %51 = getelementptr inbounds nuw i8, ptr %46, i64 %50
  %52 = ptrtoint ptr %51 to i64
  %53 = tail call noundef ptr @tcg_gen_op4(i32 noundef 35, i32 noundef 0, i64 noundef %49, i64 noundef %52, i64 noundef range(i64 0, 4294967296) 8, i64 noundef 8)
  br label %tcg_gen_shri_i32.exit

54:                                               ; preds = %42
  switch i32 %7, label %89 [
    i32 16, label %tcg_gen_shri_i32.exit50
    i32 8, label %tcg_gen_shri_i32.exit53
  ]

tcg_gen_shri_i32.exit50:                          ; preds = %54
  %55 = tail call align 8 ptr @llvm.threadlocal.address.p0(ptr align 8 @tcg_ctx)
  %56 = load ptr, ptr %55, align 8
  %57 = ptrtoint ptr %0 to i64
  %58 = getelementptr inbounds nuw i8, ptr %56, i64 %57
  %59 = ptrtoint ptr %58 to i64
  %60 = ptrtoint ptr %1 to i64
  %61 = getelementptr inbounds nuw i8, ptr %56, i64 %60
  %62 = ptrtoint ptr %61 to i64
  %63 = tail call ptr @tcg_gen_op2(i32 noundef 50, i32 noundef 0, i64 noundef %59, i64 noundef %62)
  %64 = tail call ptr @tcg_constant_i32(i32 noundef %2) #6
  %65 = load ptr, ptr %55, align 8
  %66 = getelementptr inbounds nuw i8, ptr %65, i64 %57
  %67 = ptrtoint ptr %66 to i64
  %68 = ptrtoint ptr %64 to i64
  %69 = getelementptr inbounds nuw i8, ptr %65, i64 %68
  %70 = ptrtoint ptr %69 to i64
  %71 = tail call ptr @tcg_gen_op3(i32 noundef 30, i32 noundef 0, i64 noundef %67, i64 noundef %67, i64 noundef %70)
  br label %tcg_gen_shri_i32.exit

tcg_gen_shri_i32.exit53:                          ; preds = %54
  %72 = tail call align 8 ptr @llvm.threadlocal.address.p0(ptr align 8 @tcg_ctx)
  %73 = load ptr, ptr %72, align 8
  %74 = ptrtoint ptr %0 to i64
  %75 = getelementptr inbounds nuw i8, ptr %73, i64 %74
  %76 = ptrtoint ptr %75 to i64
  %77 = ptrtoint ptr %1 to i64
  %78 = getelementptr inbounds nuw i8, ptr %73, i64 %77
  %79 = ptrtoint ptr %78 to i64
  %80 = tail call ptr @tcg_gen_op2(i32 noundef 49, i32 noundef 0, i64 noundef %76, i64 noundef %79)
  %81 = tail call ptr @tcg_constant_i32(i32 noundef %2) #6
  %82 = load ptr, ptr %72, align 8
  %83 = getelementptr inbounds nuw i8, ptr %82, i64 %74
  %84 = ptrtoint ptr %83 to i64
  %85 = ptrtoint ptr %81 to i64
  %86 = getelementptr inbounds nuw i8, ptr %82, i64 %85
  %87 = ptrtoint ptr %86 to i64
  %88 = tail call ptr @tcg_gen_op3(i32 noundef 30, i32 noundef 0, i64 noundef %84, i64 noundef %84, i64 noundef %87)
  br label %tcg_gen_shri_i32.exit

89:                                               ; preds = %54
  switch i32 %3, label %104 [
    i32 16, label %tcg_gen_shri_i32.exit56
    i32 1, label %tcg_gen_shri_i32.exit56
    i32 2, label %tcg_gen_shri_i32.exit56
    i32 3, label %tcg_gen_shri_i32.exit56
    i32 4, label %tcg_gen_shri_i32.exit56
    i32 5, label %tcg_gen_shri_i32.exit56
    i32 6, label %tcg_gen_shri_i32.exit56
    i32 7, label %tcg_gen_shri_i32.exit56
    i32 8, label %tcg_gen_shri_i32.exit56
  ]

tcg_gen_shri_i32.exit56:                          ; preds = %89, %89, %89, %89, %89, %89, %89, %89, %89
  %90 = tail call ptr @tcg_constant_i32(i32 noundef %2) #6
  %91 = tail call align 8 ptr @llvm.threadlocal.address.p0(ptr align 8 @tcg_ctx)
  %92 = load ptr, ptr %91, align 8
  %93 = ptrtoint ptr %0 to i64
  %94 = getelementptr inbounds nuw i8, ptr %92, i64 %93
  %95 = ptrtoint ptr %94 to i64
  %96 = ptrtoint ptr %1 to i64
  %97 = getelementptr inbounds nuw i8, ptr %92, i64 %96
  %98 = ptrtoint ptr %97 to i64
  %99 = ptrtoint ptr %90 to i64
  %100 = getelementptr inbounds nuw i8, ptr %92, i64 %99
  %101 = ptrtoint ptr %100 to i64
  %102 = tail call ptr @tcg_gen_op3(i32 noundef 30, i32 noundef 0, i64 noundef %95, i64 noundef %98, i64 noundef %101)
  %notmask = shl nsw i32 -1, %3
  %103 = xor i32 %notmask, -1
  tail call void @tcg_gen_andi_i32(ptr noundef %0, ptr noundef %0, i32 noundef %103)
  br label %tcg_gen_shri_i32.exit

104:                                              ; preds = %89
  %105 = sub nuw nsw i32 32, %3
  %106 = sub nsw i32 %105, %2
  tail call void @tcg_gen_shli_i32(ptr noundef %0, ptr noundef %1, i32 noundef %106)
  tail call void @tcg_gen_shri_i32(ptr noundef %0, ptr noundef %0, i32 noundef %105)
  br label %tcg_gen_shri_i32.exit

tcg_gen_shri_i32.exit:                            ; preds = %23, %13, %12, %104, %tcg_gen_shri_i32.exit56, %tcg_gen_shri_i32.exit53, %tcg_gen_shri_i32.exit50, %44, %40
  ret void
}